target datalayout = "e-m:e-p270:32:32-p271:32:32-p272:64:64-i64:64-i128:128-f80:128-n8:16:32:64-S128"
target triple = "x86_64-pc-linux-gnu"

%struct.SDL_Renderer = type { ptr, ptr, ptr, ptr, ptr, ptr, ptr, ptr, ptr, ptr, ptr, ptr, ptr, ptr, ptr, ptr, ptr, ptr, ptr, ptr, ptr, ptr, ptr, ptr, ptr, ptr, ptr, ptr, ptr, ptr, i32, i8, ptr, i8, i8, i8, i64, i64, ptr, %struct.SDL_RenderViewState, %struct.SDL_FPoint, i32, i32, ptr, ptr, ptr, i32, float, float, float, float, %struct.SDL_FColor, i32, i32, i32, ptr, ptr, ptr, ptr, i32, %struct.SDL_FColor, float, %struct.SDL_Rect, %struct.SDL_Rect, i8, i8, i8, i8, ptr, i64, i64, i8, ptr, ptr, i32, ptr, i8, ptr, ptr }
%struct.SDL_RenderViewState = type { i32, i32, %struct.SDL_Rect, %struct.SDL_Rect, %struct.SDL_Rect, %struct.SDL_Rect, i8, %struct.SDL_FPoint, i32, i32, i32, %struct.SDL_FRect, %struct.SDL_FRect, %struct.SDL_FPoint, %struct.SDL_FPoint, %struct.SDL_FPoint }
%struct.SDL_FRect = type { float, float, float, float }
%struct.SDL_FPoint = type { float, float }
%struct.SDL_FColor = type { float, float, float, float }
%struct.SDL_Rect = type { i32, i32, i32, i32 }
%struct.SDL_RenderCommand = type { i32, %union.anon, ptr }
%union.anon = type { %struct.anon.1 }
%struct.anon.1 = type { i64, i64, float, %struct.SDL_FColor, i32, ptr, i32, i32, i32, ptr }
%struct.SDL_GPURenderState = type { ptr, i32, ptr, i32, ptr, i32, ptr, i32, ptr, i32, ptr }
%struct.SDL_GPURenderStateUniformBuffer = type { i32, ptr, i32 }

@.str.2 = private unnamed_addr constant [26 x i8] c"Parameter '%s' is invalid\00", align 1
@.str.97 = private unnamed_addr constant [6 x i8] c"state\00", align 1

; Function Attrs: inlinehint nounwind uwtable
define internal void @DebugLogRenderCommands(ptr noundef %0) #6 {
  %2 = alloca ptr, align 8
  store ptr %0, ptr %2, align 8
  ret void
}

; Function Attrs: nounwind uwtable
define internal zeroext i1 @FlushRenderCommands(ptr noundef %0) #0 {
  %2 = alloca i1, align 1
  %3 = alloca ptr, align 8
  %4 = alloca i8, align 1
  %5 = alloca i32, align 4
  store ptr %0, ptr %3, align 8
  call void @llvm.lifetime.start.p0(i64 1, ptr %4) #10
  br label %6

6:                                                ; preds = %1
  br label %7

7:                                                ; preds = %6
  br label %8

8:                                                ; preds = %7
  %9 = load ptr, ptr %3, align 8
  %10 = getelementptr inbounds nuw %struct.SDL_Renderer, ptr %9, i32 0, i32 56
  %11 = load ptr, ptr %10, align 8
  %12 = icmp ne ptr %11, null
  br i1 %12, label %17, label %13

13:                                               ; preds = %8
  br label %14

14:                                               ; preds = %13
  br label %15

15:                                               ; preds = %14
  br label %16

16:                                               ; preds = %15
  store i1 true, ptr %2, align 1
  store i32 1, ptr %5, align 4
  br label %72

17:                                               ; preds = %8
  %18 = load ptr, ptr %3, align 8
  %19 = getelementptr inbounds nuw %struct.SDL_Renderer, ptr %18, i32 0, i32 56
  %20 = load ptr, ptr %19, align 8
  call void @DebugLogRenderCommands(ptr noundef %20)
  %21 = load ptr, ptr %3, align 8
  %22 = getelementptr inbounds nuw %struct.SDL_Renderer, ptr %21, i32 0, i32 13
  %23 = load ptr, ptr %22, align 8
  %24 = load ptr, ptr %3, align 8
  %25 = load ptr, ptr %3, align 8
  %26 = getelementptr inbounds nuw %struct.SDL_Renderer, ptr %25, i32 0, i32 56
  %27 = load ptr, ptr %26, align 8
  %28 = load ptr, ptr %3, align 8
  %29 = getelementptr inbounds nuw %struct.SDL_Renderer, ptr %28, i32 0, i32 68
  %30 = load ptr, ptr %29, align 8
  %31 = load ptr, ptr %3, align 8
  %32 = getelementptr inbounds nuw %struct.SDL_Renderer, ptr %31, i32 0, i32 69
  %33 = load i64, ptr %32, align 8
  %34 = call zeroext i1 %23(ptr noundef %24, ptr noundef %27, ptr noundef %30, i64 noundef %33)
  %35 = zext i1 %34 to i8
  store i8 %35, ptr %4, align 1
  %36 = load ptr, ptr %3, align 8
  %37 = getelementptr inbounds nuw %struct.SDL_Renderer, ptr %36, i32 0, i32 57
  %38 = load ptr, ptr %37, align 8
  %39 = icmp ne ptr %38, null
  br i1 %39, label %40, label %57

40:                                               ; preds = %17
  %41 = load ptr, ptr %3, align 8
  %42 = getelementptr inbounds nuw %struct.SDL_Renderer, ptr %41, i32 0, i32 58
  %43 = load ptr, ptr %42, align 8
  %44 = load ptr, ptr %3, align 8
  %45 = getelementptr inbounds nuw %struct.SDL_Renderer, ptr %44, i32 0, i32 57
  %46 = load ptr, ptr %45, align 8
  %47 = getelementptr inbounds nuw %struct.SDL_RenderCommand, ptr %46, i32 0, i32 2
  store ptr %43, ptr %47, align 8
  %48 = load ptr, ptr %3, align 8
  %49 = getelementptr inbounds nuw %struct.SDL_Renderer, ptr %48, i32 0, i32 56
  %50 = load ptr, ptr %49, align 8
  %51 = load ptr, ptr %3, align 8
  %52 = getelementptr inbounds nuw %struct.SDL_Renderer, ptr %51, i32 0, i32 58
  store ptr %50, ptr %52, align 8
  %53 = load ptr, ptr %3, align 8
  %54 = getelementptr inbounds nuw %struct.SDL_Renderer, ptr %53, i32 0, i32 57
  store ptr null, ptr %54, align 8
  %55 = load ptr, ptr %3, align 8
  %56 = getelementptr inbounds nuw %struct.SDL_Renderer, ptr %55, i32 0, i32 56
  store ptr null, ptr %56, align 8
  br label %57

57:                                               ; preds = %40, %17
  %58 = load ptr, ptr %3, align 8
  %59 = getelementptr inbounds nuw %struct.SDL_Renderer, ptr %58, i32 0, i32 69
  store i64 0, ptr %59, align 8
  %60 = load ptr, ptr %3, align 8
  %61 = getelementptr inbounds nuw %struct.SDL_Renderer, ptr %60, i32 0, i32 59
  %62 = load i32, ptr %61, align 8
  %63 = add i32 %62, 1
  store i32 %63, ptr %61, align 8
  %64 = load ptr, ptr %3, align 8
  %65 = getelementptr inbounds nuw %struct.SDL_Renderer, ptr %64, i32 0, i32 65
  store i8 0, ptr %65, align 1
  %66 = load ptr, ptr %3, align 8
  %67 = getelementptr inbounds nuw %struct.SDL_Renderer, ptr %66, i32 0, i32 66
  store i8 0, ptr %67, align 2
  %68 = load ptr, ptr %3, align 8
  %69 = getelementptr inbounds nuw %struct.SDL_Renderer, ptr %68, i32 0, i32 67
  store i8 0, ptr %69, align 1
  %70 = load i8, ptr %4, align 1, !range !5, !noundef !6
  %71 = trunc i8 %70 to i1
  store i1 %71, ptr %2, align 1
  store i32 1, ptr %5, align 4
  br label %72

72:                                               ; preds = %57, %16
  call void @llvm.lifetime.end.p0(i64 1, ptr %4) #10
  %73 = load i1, ptr %2, align 1
  ret i1 %73
}

; Function Attrs: nounwind uwtable
define internal zeroext i1 @FlushRenderCommandsIfGPURenderStateNeeded(ptr noundef %0) #0 {
  %2 = alloca i1, align 1
  %3 = alloca ptr, align 8
  %4 = alloca ptr, align 8
  %5 = alloca i32, align 4
  store ptr %0, ptr %3, align 8
  call void @llvm.lifetime.start.p0(i64 8, ptr %4) #10
  %6 = load ptr, ptr %3, align 8
  %7 = getelementptr inbounds nuw %struct.SDL_GPURenderState, ptr %6, i32 0, i32 0
  %8 = load ptr, ptr %7, align 8
  store ptr %8, ptr %4, align 8
  %9 = load ptr, ptr %3, align 8
  %10 = getelementptr inbounds nuw %struct.SDL_GPURenderState, ptr %9, i32 0, i32 1
  %11 = load i32, ptr %10, align 8
  %12 = load ptr, ptr %4, align 8
  %13 = getelementptr inbounds nuw %struct.SDL_Renderer, ptr %12, i32 0, i32 59
  %14 = load i32, ptr %13, align 8
  %15 = icmp eq i32 %11, %14
  br i1 %15, label %16, label %19

16:                                               ; preds = %1
  %17 = load ptr, ptr %4, align 8
  %18 = call zeroext i1 @FlushRenderCommands(ptr noundef %17)
  store i1 %18, ptr %2, align 1
  store i32 1, ptr %5, align 4
  br label %20

19:                                               ; preds = %1
  store i1 true, ptr %2, align 1
  store i32 1, ptr %5, align 4
  br label %20

20:                                               ; preds = %19, %16
  call void @llvm.lifetime.end.p0(i64 8, ptr %4) #10
  %21 = load i1, ptr %2, align 1
  ret i1 %21
}

; Function Attrs: nounwind uwtable
define hidden zeroext i1 @SDL_SetGPURenderStateFragmentUniforms_REAL(ptr noundef %0, i32 noundef %1, ptr noundef %2, i32 noundef %3) #0 {
  %5 = alloca i1, align 1
  %6 = alloca ptr, align 8
  %7 = alloca i32, align 4
  %8 = alloca ptr, align 8
  %9 = alloca i32, align 4
  %10 = alloca i32, align 4
  %11 = alloca i32, align 4
  %12 = alloca ptr, align 8
  %13 = alloca ptr, align 8
  %14 = alloca ptr, align 8
  %15 = alloca ptr, align 8
  store ptr %0, ptr %6, align 8
  store i32 %1, ptr %7, align 4
  store ptr %2, ptr %8, align 8
  store i32 %3, ptr %9, align 4
  %16 = load ptr, ptr %6, align 8
  %17 = icmp ne ptr %16, null
  br i1 %17, label %20, label %18

18:                                               ; preds = %4
  %19 = call zeroext i1 (ptr, ...) @SDL_SetError_REAL(ptr noundef @.str.2, ptr noundef @.str.97)
  store i1 %19, ptr %5, align 1
  br label %129

20:                                               ; preds = %4
  %21 = load ptr, ptr %6, align 8
  %22 = call zeroext i1 @FlushRenderCommandsIfGPURenderStateNeeded(ptr noundef %21)
  br i1 %22, label %24, label %23

23:                                               ; preds = %20
  store i1 false, ptr %5, align 1
  br label %129

24:                                               ; preds = %20
  call void @llvm.lifetime.start.p0(i64 4, ptr %10) #10
  store i32 0, ptr %10, align 4
  br label %25

25:                                               ; preds = %70, %24
  %26 = load i32, ptr %10, align 4
  %27 = load ptr, ptr %6, align 8
  %28 = getelementptr inbounds nuw %struct.SDL_GPURenderState, ptr %27, i32 0, i32 9
  %29 = load i32, ptr %28, align 8
  %30 = icmp slt i32 %26, %29
  br i1 %30, label %32, label %31

31:                                               ; preds = %25
  store i32 2, ptr %11, align 4
  br label %73

32:                                               ; preds = %25
  call void @llvm.lifetime.start.p0(i64 8, ptr %12) #10
  %33 = load ptr, ptr %6, align 8
  %34 = getelementptr inbounds nuw %struct.SDL_GPURenderState, ptr %33, i32 0, i32 10
  %35 = load ptr, ptr %34, align 8
  %36 = load i32, ptr %10, align 4
  %37 = sext i32 %36 to i64
  %38 = getelementptr inbounds %struct.SDL_GPURenderStateUniformBuffer, ptr %35, i64 %37
  store ptr %38, ptr %12, align 8
  %39 = load ptr, ptr %12, align 8
  %40 = getelementptr inbounds nuw %struct.SDL_GPURenderStateUniformBuffer, ptr %39, i32 0, i32 0
  %41 = load i32, ptr %40, align 8
  %42 = load i32, ptr %7, align 4
  %43 = icmp eq i32 %41, %42
  br i1 %43, label %44, label %66

44:                                               ; preds = %32
  call void @llvm.lifetime.start.p0(i64 8, ptr %13) #10
  %45 = load ptr, ptr %12, align 8
  %46 = getelementptr inbounds nuw %struct.SDL_GPURenderStateUniformBuffer, ptr %45, i32 0, i32 1
  %47 = load ptr, ptr %46, align 8
  %48 = load i32, ptr %9, align 4
  %49 = zext i32 %48 to i64
  %50 = call ptr @SDL_realloc_REAL(ptr noundef %47, i64 noundef %49) #11
  store ptr %50, ptr %13, align 8
  %51 = load ptr, ptr %13, align 8
  %52 = icmp ne ptr %51, null
  br i1 %52, label %54, label %53

53:                                               ; preds = %44
  store i1 false, ptr %5, align 1
  store i32 1, ptr %11, align 4
  br label %65

54:                                               ; preds = %44
  %55 = load ptr, ptr %13, align 8
  %56 = load ptr, ptr %8, align 8
  %57 = load i32, ptr %9, align 4
  %58 = zext i32 %57 to i64
  call void @llvm.memcpy.p0.p0.i64(ptr align 1 %55, ptr align 1 %56, i64 %58, i1 false)
  %59 = load ptr, ptr %13, align 8
  %60 = load ptr, ptr %12, align 8
  %61 = getelementptr inbounds nuw %struct.SDL_GPURenderStateUniformBuffer, ptr %60, i32 0, i32 1
  store ptr %59, ptr %61, align 8
  %62 = load i32, ptr %9, align 4
  %63 = load ptr, ptr %12, align 8
  %64 = getelementptr inbounds nuw %struct.SDL_GPURenderStateUniformBuffer, ptr %63, i32 0, i32 2
  store i32 %62, ptr %64, align 8
  store i1 true, ptr %5, align 1
  store i32 1, ptr %11, align 4
  br label %65

65:                                               ; preds = %54, %53
  call void @llvm.lifetime.end.p0(i64 8, ptr %13) #10
  br label %67

66:                                               ; preds = %32
  store i32 0, ptr %11, align 4
  br label %67

67:                                               ; preds = %66, %65
  call void @llvm.lifetime.end.p0(i64 8, ptr %12) #10
  %68 = load i32, ptr %11, align 4
  switch i32 %68, label %73 [
    i32 0, label %69
  ]

69:                                               ; preds = %67
  br label %70

70:                                               ; preds = %69
  %71 = load i32, ptr %10, align 4
  %72 = add nsw i32 %71, 1
  store i32 %72, ptr %10, align 4
  br label %25, !llvm.loop !45

73:                                               ; preds = %67, %31
  call void @llvm.lifetime.end.p0(i64 4, ptr %10) #10
  %74 = load i32, ptr %11, align 4
  switch i32 %74, label %131 [
    i32 2, label %75
    i32 1, label %129
  ]

75:                                               ; preds = %73
  call void @llvm.lifetime.start.p0(i64 8, ptr %14) #10
  %76 = load ptr, ptr %6, align 8
  %77 = getelementptr inbounds nuw %struct.SDL_GPURenderState, ptr %76, i32 0, i32 10
  %78 = load ptr, ptr %77, align 8
  %79 = load ptr, ptr %6, align 8
  %80 = getelementptr inbounds nuw %struct.SDL_GPURenderState, ptr %79, i32 0, i32 9
  %81 = load i32, ptr %80, align 8
  %82 = add nsw i32 %81, 1
  %83 = sext i32 %82 to i64
  %84 = mul i64 %83, 24
  %85 = call ptr @SDL_realloc_REAL(ptr noundef %78, i64 noundef %84) #11
  store ptr %85, ptr %14, align 8
  %86 = load ptr, ptr %14, align 8
  %87 = icmp ne ptr %86, null
  br i1 %87, label %89, label %88

88:                                               ; preds = %75
  store i1 false, ptr %5, align 1
  store i32 1, ptr %11, align 4
  br label %128

89:                                               ; preds = %75
  call void @llvm.lifetime.start.p0(i64 8, ptr %15) #10
  %90 = load ptr, ptr %14, align 8
  %91 = load ptr, ptr %6, align 8
  %92 = getelementptr inbounds nuw %struct.SDL_GPURenderState, ptr %91, i32 0, i32 9
  %93 = load i32, ptr %92, align 8
  %94 = sext i32 %93 to i64
  %95 = getelementptr inbounds %struct.SDL_GPURenderStateUniformBuffer, ptr %90, i64 %94
  store ptr %95, ptr %15, align 8
  %96 = load i32, ptr %7, align 4
  %97 = load ptr, ptr %15, align 8
  %98 = getelementptr inbounds nuw %struct.SDL_GPURenderStateUniformBuffer, ptr %97, i32 0, i32 0
  store i32 %96, ptr %98, align 8
  %99 = load i32, ptr %9, align 4
  %100 = load ptr, ptr %15, align 8
  %101 = getelementptr inbounds nuw %struct.SDL_GPURenderStateUniformBuffer, ptr %100, i32 0, i32 2
  store i32 %99, ptr %101, align 8
  %102 = load i32, ptr %9, align 4
  %103 = zext i32 %102 to i64
  %104 = call noalias ptr @SDL_malloc_REAL(i64 noundef %103)
  %105 = load ptr, ptr %15, align 8
  %106 = getelementptr inbounds nuw %struct.SDL_GPURenderStateUniformBuffer, ptr %105, i32 0, i32 1
  store ptr %104, ptr %106, align 8
  %107 = load ptr, ptr %15, align 8
  %108 = getelementptr inbounds nuw %struct.SDL_GPURenderStateUniformBuffer, ptr %107, i32 0, i32 1
  %109 = load ptr, ptr %108, align 8
  %110 = icmp ne ptr %109, null
  br i1 %110, label %113, label %111

111:                                              ; preds = %89
  %112 = load ptr, ptr %14, align 8
  call void @SDL_free_REAL(ptr noundef %112)
  store i1 false, ptr %5, align 1
  store i32 1, ptr %11, align 4
  br label %127

113:                                              ; preds = %89
  %114 = load ptr, ptr %15, align 8
  %115 = getelementptr inbounds nuw %struct.SDL_GPURenderStateUniformBuffer, ptr %114, i32 0, i32 1
  %116 = load ptr, ptr %115, align 8
  %117 = load ptr, ptr %8, align 8
  %118 = load i32, ptr %9, align 4
  %119 = zext i32 %118 to i64
  call void @llvm.memcpy.p0.p0.i64(ptr align 1 %116, ptr align 1 %117, i64 %119, i1 false)
  %120 = load ptr, ptr %14, align 8
  %121 = load ptr, ptr %6, align 8
  %122 = getelementptr inbounds nuw %struct.SDL_GPURenderState, ptr %121, i32 0, i32 10
  store ptr %120, ptr %122, align 8
  %123 = load ptr, ptr %6, align 8
  %124 = getelementptr inbounds nuw %struct.SDL_GPURenderState, ptr %123, i32 0, i32 9
  %125 = load i32, ptr %124, align 8
  %126 = add nsw i32 %125, 1
  store i32 %126, ptr %124, align 8
  store i1 true, ptr %5, align 1
  store i32 1, ptr %11, align 4
  br label %127

127:                                              ; preds = %113, %111
  call void @llvm.lifetime.end.p0(i64 8, ptr %15) #10
  br label %128

128:                                              ; preds = %127, %88
  call void @llvm.lifetime.end.p0(i64 8, ptr %14) #10
  br label %129

129:                                              ; preds = %128, %73, %23, %18
  %130 = load i1, ptr %5, align 1
  ret i1 %130

131:                                              ; preds = %73
  unreachable
}