; Function Attrs: nounwind uwtable
define hidden zeroext i1 @SDL_SetGPURenderStateFragmentUniforms_REAL(ptr noundef captures(address_is_null) %0, i32 noundef %1, ptr noundef readonly captures(none) %2, i32 noundef %3) local_unnamed_addr #0 {
  %.not = icmp eq ptr %0, null
  br i1 %.not, label %5, label %7

5:                                                ; preds = %4
  %6 = tail call zeroext i1 (ptr, ...) @SDL_SetError_REAL(ptr noundef nonnull @.str.2, ptr noundef nonnull @.str.97) #15
  br label %69

7:                                                ; preds = %4
  %.val = load ptr, ptr %0, align 8
  %8 = getelementptr i8, ptr %0, i64 8
  %.val52 = load i32, ptr %8, align 8
  %9 = getelementptr inbounds nuw i8, ptr %.val, i64 560
  %10 = load i32, ptr %9, align 8
  %11 = icmp eq i32 %.val52, %10
  br i1 %11, label %12, label %.preheader

12:                                               ; preds = %7
  %13 = getelementptr inbounds nuw i8, ptr %.val, i64 536
  %14 = load ptr, ptr %13, align 8
  %.not.i.i = icmp eq ptr %14, null
  br i1 %.not.i.i, label %.preheader, label %15

15:                                               ; preds = %12
  %16 = getelementptr inbounds nuw i8, ptr %.val, i64 104
  %17 = load ptr, ptr %16, align 8
  %18 = getelementptr inbounds nuw i8, ptr %.val, i64 624
  %19 = load ptr, ptr %18, align 8
  %20 = getelementptr inbounds nuw i8, ptr %.val, i64 632
  %21 = load i64, ptr %20, align 8
  %22 = tail call zeroext i1 %17(ptr noundef nonnull %.val, ptr noundef nonnull %14, ptr noundef %19, i64 noundef %21) #15
  %23 = getelementptr inbounds nuw i8, ptr %.val, i64 544
  %24 = load ptr, ptr %23, align 8
  %.not22.i.i = icmp eq ptr %24, null
  br i1 %.not22.i.i, label %30, label %25

25:                                               ; preds = %15
  %26 = getelementptr inbounds nuw i8, ptr %.val, i64 552
  %27 = load ptr, ptr %26, align 8
  %28 = getelementptr inbounds nuw i8, ptr %24, i64 80
  store ptr %27, ptr %28, align 8
  %29 = load ptr, ptr %13, align 8
  store ptr %29, ptr %26, align 8
  tail call void @llvm.memset.p0.i64(ptr noundef nonnull align 8 dereferenceable(16) %13, i8 0, i64 16, i1 false)
  br label %30

30:                                               ; preds = %25, %15
  store i64 0, ptr %20, align 8
  %31 = load i32, ptr %9, align 8
  %32 = add i32 %31, 1
  store i32 %32, ptr %9, align 8
  %33 = getelementptr inbounds nuw i8, ptr %.val, i64 617
  store i8 0, ptr %33, align 1
  %34 = getelementptr inbounds nuw i8, ptr %.val, i64 618
  store i8 0, ptr %34, align 2
  %35 = getelementptr inbounds nuw i8, ptr %.val, i64 619
  store i8 0, ptr %35, align 1
  br i1 %22, label %.preheader, label %69

.preheader:                                       ; preds = %12, %7, %30
  %36 = getelementptr inbounds nuw i8, ptr %0, i64 72
  %37 = load i32, ptr %36, align 8
  %38 = icmp sgt i32 %37, 0
  %39 = getelementptr inbounds nuw i8, ptr %0, i64 80
  %40 = load ptr, ptr %39, align 8
  br i1 %38, label %.lr.ph, label %._crit_edge

.lr.ph:                                           ; preds = %.preheader
  %wide.trip.count = zext nneg i32 %37 to i64
  br label %42

41:                                               ; preds = %42
  %indvars.iv.next = add nuw nsw i64 %indvars.iv, 1
  %exitcond.not = icmp eq i64 %indvars.iv.next, %wide.trip.count
  br i1 %exitcond.not, label %._crit_edge, label %42, !llvm.loop !44

42:                                               ; preds = %.lr.ph, %41
  %indvars.iv = phi i64 [ 0, %.lr.ph ], [ %indvars.iv.next, %41 ]
  %43 = getelementptr inbounds nuw %struct.SDL_GPURenderStateUniformBuffer, ptr %40, i64 %indvars.iv
  %44 = load i32, ptr %43, align 8
  %.not49 = icmp eq i32 %44, %1
  br i1 %.not49, label %45, label %41

45:                                               ; preds = %42
  %46 = getelementptr inbounds nuw i8, ptr %43, i64 8
  %47 = load ptr, ptr %46, align 8
  %48 = zext i32 %3 to i64
  %49 = tail call ptr @SDL_realloc_REAL(ptr noundef %47, i64 noundef %48) #16
  %.not48.not.not = icmp eq ptr %49, null
  br i1 %.not48.not.not, label %69, label %50

50:                                               ; preds = %45
  tail call void @llvm.memcpy.p0.p0.i64(ptr nonnull align 1 %49, ptr align 1 %2, i64 %48, i1 false)
  store ptr %49, ptr %46, align 8
  %51 = getelementptr inbounds nuw i8, ptr %43, i64 16
  store i32 %3, ptr %51, align 8
  br label %69

._crit_edge:                                      ; preds = %41, %.preheader
  %52 = getelementptr inbounds nuw i8, ptr %0, i64 80
  %53 = add nsw i32 %37, 1
  %54 = sext i32 %53 to i64
  %55 = mul nsw i64 %54, 24
  %56 = tail call ptr @SDL_realloc_REAL(ptr noundef %40, i64 noundef %55) #16
  %.not50 = icmp eq ptr %56, null
  br i1 %.not50, label %69, label %57

57:                                               ; preds = %._crit_edge
  %58 = load i32, ptr %36, align 8
  %59 = sext i32 %58 to i64
  %60 = getelementptr inbounds %struct.SDL_GPURenderStateUniformBuffer, ptr %56, i64 %59
  store i32 %1, ptr %60, align 8
  %61 = getelementptr inbounds nuw i8, ptr %60, i64 16
  store i32 %3, ptr %61, align 8
  %62 = zext i32 %3 to i64
  %63 = tail call noalias ptr @SDL_malloc_REAL(i64 noundef %62) #15
  %64 = getelementptr inbounds nuw i8, ptr %60, i64 8
  store ptr %63, ptr %64, align 8
  %.not51.not = icmp eq ptr %63, null
  br i1 %.not51.not, label %65, label %66

65:                                               ; preds = %57
  tail call void @SDL_free_REAL(ptr noundef nonnull %56) #15
  br label %69

66:                                               ; preds = %57
  tail call void @llvm.memcpy.p0.p0.i64(ptr nonnull align 1 %63, ptr align 1 %2, i64 %62, i1 false)
  store ptr %56, ptr %52, align 8
  %67 = load i32, ptr %36, align 8
  %68 = add nsw i32 %67, 1
  store i32 %68, ptr %36, align 8
  br label %69

69:                                               ; preds = %45, %50, %30, %._crit_edge, %66, %65, %5
  %.0 = phi i1 [ %6, %5 ], [ false, %._crit_edge ], [ true, %66 ], [ false, %65 ], [ false, %30 ], [ true, %50 ], [ false, %45 ]
  ret i1 %.0
}